target datalayout = "e-m:e-p270:32:32-p271:32:32-p272:64:64-i64:64-i128:128-f80:128-n8:16:32:64-S128"
target triple = "x86_64-pc-linux-gnu"

%"struct.vcpkg::StringView" = type { ptr, i64 }
%"struct.vcpkg::LocalizedString" = type { %"class.std::__cxx11::basic_string" }
%"class.std::__cxx11::basic_string" = type { %"struct.std::__cxx11::basic_string<char>::_Alloc_hider", i64, %union.anon.5 }
%"struct.std::__cxx11::basic_string<char>::_Alloc_hider" = type { ptr }
%union.anon.5 = type { i64, [8 x i8] }
%"struct.vcpkg::LineInfo" = type { i32, ptr }
%"struct.vcpkg::Span.163" = type { ptr, i64 }
%"struct.vcpkg::ExpectedT.164" = type <{ %union.anon.165, i8, [7 x i8] }>
%union.anon.165 = type { %"struct.vcpkg::LocalizedString" }
%"struct.vcpkg::ExpectedT.168" = type <{ %union.anon.169, i8, [7 x i8] }>
%union.anon.169 = type { %"struct.vcpkg::LocalizedString" }
%"struct.vcpkg::ExpectedHolder.170" = type { %"class.std::unique_ptr.171" }
%"class.std::unique_ptr.171" = type { %"struct.std::__uniq_ptr_data.172" }
%"struct.std::__uniq_ptr_data.172" = type { %"class.std::__uniq_ptr_impl.173" }
%"class.std::__uniq_ptr_impl.173" = type { %"class.std::tuple.174" }
%"class.std::tuple.174" = type { %"struct.std::_Tuple_impl.175" }
%"struct.std::_Tuple_impl.175" = type { %"struct.std::_Head_base.178" }
%"struct.std::_Head_base.178" = type { ptr }
%"struct.vcpkg::ExpectedHolder.166" = type { %"struct.vcpkg::Span.163" }

@.str.24 = private unnamed_addr constant [125 x i8] c"generated/home/dtcxzyw/WorkSpace/Projects/compilers/llvm-opt-benchmark/bench/vcpkg/vcpkg-tool/src/vcpkg/portfileprovider.cpp\00", align 1

; Function Attrs: mustprogress nounwind uwtable
define linkonce_odr dso_local noundef nonnull align 8 dereferenceable(8) ptr @_ZNSt10_Head_baseILm0EPN5vcpkg13RegistryEntryELb0EE7_M_headERKS3_(ptr noundef nonnull align 8 dereferenceable(8) %0) #0 comdat align 2 {
  %2 = alloca ptr, align 8
  store ptr %0, ptr %2, align 8
  %3 = load ptr, ptr %2, align 8
  %4 = getelementptr inbounds %"struct.std::_Head_base.178", ptr %3, i32 0, i32 0
  ret ptr %4
}

; Function Attrs: mustprogress nounwind uwtable
define linkonce_odr dso_local noundef nonnull align 8 dereferenceable(8) ptr @_ZNSt11_Tuple_implILm0EJPN5vcpkg13RegistryEntryESt14default_deleteIS1_EEE7_M_headERKS5_(ptr noundef nonnull align 8 dereferenceable(8) %0) #0 comdat align 2 {
  %2 = alloca ptr, align 8
  store ptr %0, ptr %2, align 8
  %3 = load ptr, ptr %2, align 8
  %4 = call noundef nonnull align 8 dereferenceable(8) ptr @_ZNSt10_Head_baseILm0EPN5vcpkg13RegistryEntryELb0EE7_M_headERKS3_(ptr noundef nonnull align 8 dereferenceable(8) %3) #13
  ret ptr %4
}

; Function Attrs: mustprogress nounwind uwtable
define linkonce_odr dso_local noundef nonnull align 8 dereferenceable(8) ptr @_ZSt12__get_helperILm0EPN5vcpkg13RegistryEntryEJSt14default_deleteIS1_EEERKT0_RKSt11_Tuple_implIXT_EJS5_DpT1_EE(ptr noundef nonnull align 8 dereferenceable(8) %0) #0 comdat {
  %2 = alloca ptr, align 8
  store ptr %0, ptr %2, align 8
  %3 = load ptr, ptr %2, align 8
  %4 = call noundef nonnull align 8 dereferenceable(8) ptr @_ZNSt11_Tuple_implILm0EJPN5vcpkg13RegistryEntryESt14default_deleteIS1_EEE7_M_headERKS5_(ptr noundef nonnull align 8 dereferenceable(8) %3) #13
  ret ptr %4
}

; Function Attrs: mustprogress nounwind uwtable
define linkonce_odr dso_local noundef nonnull align 8 dereferenceable(8) ptr @_ZSt3getILm0EJPN5vcpkg13RegistryEntryESt14default_deleteIS1_EEERKNSt13tuple_elementIXT_ESt5tupleIJDpT0_EEE4typeERKS9_(ptr noundef nonnull align 8 dereferenceable(8) %0) #0 comdat {
  %2 = alloca ptr, align 8
  store ptr %0, ptr %2, align 8
  %3 = load ptr, ptr %2, align 8
  %4 = call noundef nonnull align 8 dereferenceable(8) ptr @_ZSt12__get_helperILm0EPN5vcpkg13RegistryEntryEJSt14default_deleteIS1_EEERKT0_RKSt11_Tuple_implIXT_EJS5_DpT1_EE(ptr noundef nonnull align 8 dereferenceable(8) %3) #13
  ret ptr %4
}

; Function Attrs: mustprogress nounwind uwtable
define linkonce_odr dso_local noundef ptr @_ZNKSt15__uniq_ptr_implIN5vcpkg13RegistryEntryESt14default_deleteIS1_EE6_M_ptrEv(ptr noundef nonnull align 8 dereferenceable(8) %0) #0 comdat align 2 {
  %2 = alloca ptr, align 8
  store ptr %0, ptr %2, align 8
  %3 = load ptr, ptr %2, align 8
  %4 = getelementptr inbounds %"class.std::__uniq_ptr_impl.173", ptr %3, i32 0, i32 0
  %5 = call noundef nonnull align 8 dereferenceable(8) ptr @_ZSt3getILm0EJPN5vcpkg13RegistryEntryESt14default_deleteIS1_EEERKNSt13tuple_elementIXT_ESt5tupleIJDpT0_EEE4typeERKS9_(ptr noundef nonnull align 8 dereferenceable(8) %4) #13
  %6 = load ptr, ptr %5, align 8
  ret ptr %6
}

; Function Attrs: mustprogress nounwind uwtable
define linkonce_odr dso_local void @_ZN5vcpkg15LocalizedStringD2Ev(ptr noundef nonnull align 8 dereferenceable(32) %0) unnamed_addr #0 comdat align 2 {
  %2 = alloca ptr, align 8
  store ptr %0, ptr %2, align 8
  %3 = load ptr, ptr %2, align 8
  %4 = getelementptr inbounds %"struct.vcpkg::LocalizedString", ptr %3, i32 0, i32 0
  call void @_ZNSt7__cxx1112basic_stringIcSt11char_traitsIcESaIcEED1Ev(ptr noundef nonnull align 8 dereferenceable(32) %4) #13
  ret void
}

; Function Attrs: mustprogress nounwind uwtable
define linkonce_odr dso_local noundef ptr @_ZN5vcpkg14ExpectedHolderINS_4SpanIKNS_7VersionEEEE3getEv(ptr noundef nonnull align 8 dereferenceable(16) %0) #0 comdat align 2 {
  %2 = alloca ptr, align 8
  store ptr %0, ptr %2, align 8
  %3 = load ptr, ptr %2, align 8
  %4 = getelementptr inbounds %"struct.vcpkg::ExpectedHolder.166", ptr %3, i32 0, i32 0
  ret ptr %4
}

; Function Attrs: mustprogress nounwind uwtable
define linkonce_odr dso_local void @_ZNK5vcpkg9ExpectedTINS_4SpanIKNS_7VersionEEENS_15LocalizedStringEE13exit_if_errorERKNS_8LineInfoE(ptr noundef nonnull align 8 dereferenceable(33) %0, ptr noundef nonnull align 8 dereferenceable(16) %1) #0 comdat align 2 personality ptr @__gxx_personality_v0 {
  %3 = alloca ptr, align 8
  %4 = alloca ptr, align 8
  store ptr %0, ptr %3, align 8
  store ptr %1, ptr %4, align 8
  %5 = load ptr, ptr %3, align 8
  %6 = getelementptr inbounds %"struct.vcpkg::ExpectedT.164", ptr %5, i32 0, i32 1
  %7 = load i8, ptr %6, align 8
  %8 = trunc i8 %7 to i1
  br i1 %8, label %9, label %13

9:                                                ; preds = %2
  %10 = load ptr, ptr %4, align 8
  %11 = call noundef nonnull align 8 dereferenceable(32) ptr @_ZNKR5vcpkg9ExpectedTINS_4SpanIKNS_7VersionEEENS_15LocalizedStringEE5errorEv(ptr noundef nonnull align 8 dereferenceable(33) %5) #13
  invoke void @_ZN5vcpkg6Checks21msg_exit_with_messageERKNS_8LineInfoERKNS_15LocalizedStringE(ptr noundef nonnull align 8 dereferenceable(16) %10, ptr noundef nonnull align 8 dereferenceable(32) %11) #17
          to label %12 unwind label %14

12:                                               ; preds = %9
  unreachable

13:                                               ; preds = %2
  ret void

14:                                               ; preds = %9
  %15 = landingpad { ptr, i32 }
          catch ptr null
  %16 = extractvalue { ptr, i32 } %15, 0
  call void @__clang_call_terminate(ptr %16) #14
  unreachable
}

; Function Attrs: mustprogress nounwind uwtable
define linkonce_odr dso_local noundef ptr @_ZNKSt10unique_ptrIN5vcpkg13RegistryEntryESt14default_deleteIS1_EE3getEv(ptr noundef nonnull align 8 dereferenceable(8) %0) #0 comdat align 2 {
  %2 = alloca ptr, align 8
  store ptr %0, ptr %2, align 8
  %3 = load ptr, ptr %2, align 8
  %4 = getelementptr inbounds %"class.std::unique_ptr.171", ptr %3, i32 0, i32 0
  %5 = call noundef ptr @_ZNKSt15__uniq_ptr_implIN5vcpkg13RegistryEntryESt14default_deleteIS1_EE6_M_ptrEv(ptr noundef nonnull align 8 dereferenceable(8) %4) #13
  ret ptr %5
}

; Function Attrs: mustprogress nounwind uwtable
define linkonce_odr dso_local noundef ptr @_ZNK5vcpkg14ExpectedHolderISt10unique_ptrINS_13RegistryEntryESt14default_deleteIS2_EEE3getEv(ptr noundef nonnull align 8 dereferenceable(8) %0) #0 comdat align 2 {
  %2 = alloca ptr, align 8
  store ptr %0, ptr %2, align 8
  %3 = load ptr, ptr %2, align 8
  %4 = getelementptr inbounds %"struct.vcpkg::ExpectedHolder.170", ptr %3, i32 0, i32 0
  ret ptr %4
}

; Function Attrs: mustprogress nounwind uwtable
define linkonce_odr dso_local void @_ZNK5vcpkg9ExpectedTISt10unique_ptrINS_13RegistryEntryESt14default_deleteIS2_EENS_15LocalizedStringEE13exit_if_errorERKNS_8LineInfoE(ptr noundef nonnull align 8 dereferenceable(33) %0, ptr noundef nonnull align 8 dereferenceable(16) %1) #0 comdat align 2 personality ptr @__gxx_personality_v0 {
  %3 = alloca ptr, align 8
  %4 = alloca ptr, align 8
  store ptr %0, ptr %3, align 8
  store ptr %1, ptr %4, align 8
  %5 = load ptr, ptr %3, align 8
  %6 = getelementptr inbounds %"struct.vcpkg::ExpectedT.168", ptr %5, i32 0, i32 1
  %7 = load i8, ptr %6, align 8
  %8 = trunc i8 %7 to i1
  br i1 %8, label %9, label %13

9:                                                ; preds = %2
  %10 = load ptr, ptr %4, align 8
  %11 = call noundef nonnull align 8 dereferenceable(32) ptr @_ZNKR5vcpkg9ExpectedTISt10unique_ptrINS_13RegistryEntryESt14default_deleteIS2_EENS_15LocalizedStringEE5errorEv(ptr noundef nonnull align 8 dereferenceable(33) %5) #13
  invoke void @_ZN5vcpkg6Checks21msg_exit_with_messageERKNS_8LineInfoERKNS_15LocalizedStringE(ptr noundef nonnull align 8 dereferenceable(16) %10, ptr noundef nonnull align 8 dereferenceable(32) %11) #17
          to label %12 unwind label %14

12:                                               ; preds = %9
  unreachable

13:                                               ; preds = %2
  ret void

14:                                               ; preds = %9
  %15 = landingpad { ptr, i32 }
          catch ptr null
  %16 = extractvalue { ptr, i32 } %15, 0
  call void @__clang_call_terminate(ptr %16) #14
  unreachable
}

; Function Attrs: mustprogress nounwind uwtable
define linkonce_odr dso_local void @_ZN5vcpkg9ExpectedTINS_4SpanIKNS_7VersionEEENS_15LocalizedStringEED2Ev(ptr noundef nonnull align 8 dereferenceable(33) %0) unnamed_addr #0 comdat align 2 {
  %2 = alloca ptr, align 8
  store ptr %0, ptr %2, align 8
  %3 = load ptr, ptr %2, align 8
  %4 = getelementptr inbounds %"struct.vcpkg::ExpectedT.164", ptr %3, i32 0, i32 1
  %5 = load i8, ptr %4, align 8
  %6 = trunc i8 %5 to i1
  br i1 %6, label %7, label %9

7:                                                ; preds = %1
  %8 = getelementptr inbounds %"struct.vcpkg::ExpectedT.164", ptr %3, i32 0, i32 0
  call void @_ZN5vcpkg15LocalizedStringD2Ev(ptr noundef nonnull align 8 dereferenceable(32) %8) #13
  br label %10

9:                                                ; preds = %1
  br label %10

10:                                               ; preds = %9, %7
  ret void
}

; Function Attrs: mustprogress nounwind uwtable
define linkonce_odr dso_local noundef nonnull align 8 dereferenceable(16) ptr @_ZNO5vcpkg9ExpectedTINS_4SpanIKNS_7VersionEEENS_15LocalizedStringEE13value_or_exitERKNS_8LineInfoE(ptr noundef nonnull align 8 dereferenceable(33) %0, ptr noundef nonnull align 8 dereferenceable(16) %1) #0 comdat align 2 {
  %3 = alloca ptr, align 8
  %4 = alloca ptr, align 8
  store ptr %0, ptr %3, align 8
  store ptr %1, ptr %4, align 8
  %5 = load ptr, ptr %3, align 8
  %6 = load ptr, ptr %4, align 8
  call void @_ZNK5vcpkg9ExpectedTINS_4SpanIKNS_7VersionEEENS_15LocalizedStringEE13exit_if_errorERKNS_8LineInfoE(ptr noundef nonnull align 8 dereferenceable(33) %5, ptr noundef nonnull align 8 dereferenceable(16) %6) #13
  %7 = getelementptr inbounds %"struct.vcpkg::ExpectedT.164", ptr %5, i32 0, i32 0
  %8 = call noundef ptr @_ZN5vcpkg14ExpectedHolderINS_4SpanIKNS_7VersionEEEE3getEv(ptr noundef nonnull align 8 dereferenceable(16) %7) #13
  ret ptr %8
}

; Function Attrs: mustprogress nounwind uwtable
define linkonce_odr dso_local noundef ptr @_ZNKSt10unique_ptrIN5vcpkg13RegistryEntryESt14default_deleteIS1_EEptEv(ptr noundef nonnull align 8 dereferenceable(8) %0) #0 comdat align 2 {
  %2 = alloca ptr, align 8
  store ptr %0, ptr %2, align 8
  %3 = load ptr, ptr %2, align 8
  %4 = call noundef ptr @_ZNKSt10unique_ptrIN5vcpkg13RegistryEntryESt14default_deleteIS1_EE3getEv(ptr noundef nonnull align 8 dereferenceable(8) %3) #13
  ret ptr %4
}

; Function Attrs: mustprogress nounwind uwtable
define linkonce_odr dso_local noundef nonnull align 8 dereferenceable(8) ptr @_ZNKR5vcpkg9ExpectedTISt10unique_ptrINS_13RegistryEntryESt14default_deleteIS2_EENS_15LocalizedStringEE13value_or_exitERKNS_8LineInfoE(ptr noundef nonnull align 8 dereferenceable(33) %0, ptr noundef nonnull align 8 dereferenceable(16) %1) #0 comdat align 2 {
  %3 = alloca ptr, align 8
  %4 = alloca ptr, align 8
  store ptr %0, ptr %3, align 8
  store ptr %1, ptr %4, align 8
  %5 = load ptr, ptr %3, align 8
  %6 = load ptr, ptr %4, align 8
  call void @_ZNK5vcpkg9ExpectedTISt10unique_ptrINS_13RegistryEntryESt14default_deleteIS2_EENS_15LocalizedStringEE13exit_if_errorERKNS_8LineInfoE(ptr noundef nonnull align 8 dereferenceable(33) %5, ptr noundef nonnull align 8 dereferenceable(16) %6) #13
  %7 = getelementptr inbounds %"struct.vcpkg::ExpectedT.168", ptr %5, i32 0, i32 0
  %8 = call noundef ptr @_ZNK5vcpkg14ExpectedHolderISt10unique_ptrINS_13RegistryEntryESt14default_deleteIS2_EEE3getEv(ptr noundef nonnull align 8 dereferenceable(8) %7) #13
  ret ptr %8
}

; Function Attrs: mustprogress uwtable
define internal { ptr, i64 } @_ZNK5vcpkg12_GLOBAL__N_129VersionedPortfileProviderImpl17get_port_versionsENS_10StringViewE(ptr noundef nonnull align 8 dereferenceable(128) %0, ptr %1, i64 %2) unnamed_addr #1 align 2 personality ptr @__gxx_personality_v0 {
  %4 = alloca %"struct.vcpkg::Span.163", align 8
  %5 = alloca %"struct.vcpkg::StringView", align 8
  %6 = alloca ptr, align 8
  %7 = alloca %"struct.vcpkg::ExpectedT.164", align 8
  %8 = alloca %"struct.vcpkg::StringView", align 8
  %9 = alloca %"struct.vcpkg::LineInfo", align 8
  %10 = alloca %"struct.vcpkg::LineInfo", align 8
  %11 = alloca ptr, align 8
  %12 = alloca i32, align 4
  %13 = getelementptr inbounds { ptr, i64 }, ptr %5, i32 0, i32 0
  store ptr %1, ptr %13, align 8
  %14 = getelementptr inbounds { ptr, i64 }, ptr %5, i32 0, i32 1
  store i64 %2, ptr %14, align 8
  store ptr %0, ptr %6, align 8
  %15 = load ptr, ptr %6, align 8
  call void @llvm.memcpy.p0.p0.i64(ptr align 8 %8, ptr align 8 %5, i64 16, i1 false)
  %16 = getelementptr inbounds { ptr, i64 }, ptr %8, i32 0, i32 0
  %17 = load ptr, ptr %16, align 8
  %18 = getelementptr inbounds { ptr, i64 }, ptr %8, i32 0, i32 1
  %19 = load i64, ptr %18, align 8
  %20 = call noundef nonnull align 8 dereferenceable(33) ptr @_ZNK5vcpkg12_GLOBAL__N_129VersionedPortfileProviderImpl5entryENS_10StringViewE(ptr noundef nonnull align 8 dereferenceable(128) %15, ptr %17, i64 %19)
  %21 = getelementptr inbounds %"struct.vcpkg::LineInfo", ptr %9, i32 0, i32 0
  store i32 166, ptr %21, align 8
  %22 = getelementptr inbounds %"struct.vcpkg::LineInfo", ptr %9, i32 0, i32 1
  store ptr @.str.24, ptr %22, align 8
  %23 = call noundef nonnull align 8 dereferenceable(8) ptr @_ZNKR5vcpkg9ExpectedTISt10unique_ptrINS_13RegistryEntryESt14default_deleteIS2_EENS_15LocalizedStringEE13value_or_exitERKNS_8LineInfoE(ptr noundef nonnull align 8 dereferenceable(33) %20, ptr noundef nonnull align 8 dereferenceable(16) %9)
  %24 = call noundef ptr @_ZNKSt10unique_ptrIN5vcpkg13RegistryEntryESt14default_deleteIS1_EEptEv(ptr noundef nonnull align 8 dereferenceable(8) %23) #13
  %25 = load ptr, ptr %24, align 8
  %26 = getelementptr inbounds ptr, ptr %25, i64 0
  %27 = load ptr, ptr %26, align 8
  call void %27(ptr dead_on_unwind writable sret(%"struct.vcpkg::ExpectedT.164") align 8 %7, ptr noundef nonnull align 8 dereferenceable(8) %24)
  %28 = getelementptr inbounds %"struct.vcpkg::LineInfo", ptr %10, i32 0, i32 0
  store i32 168, ptr %28, align 8
  %29 = getelementptr inbounds %"struct.vcpkg::LineInfo", ptr %10, i32 0, i32 1
  store ptr @.str.24, ptr %29, align 8
  %30 = invoke noundef nonnull align 8 dereferenceable(16) ptr @_ZNO5vcpkg9ExpectedTINS_4SpanIKNS_7VersionEEENS_15LocalizedStringEE13value_or_exitERKNS_8LineInfoE(ptr noundef nonnull align 8 dereferenceable(33) %7, ptr noundef nonnull align 8 dereferenceable(16) %10)
          to label %31 unwind label %33

31:                                               ; preds = %3
  call void @llvm.memcpy.p0.p0.i64(ptr align 8 %4, ptr align 8 %30, i64 16, i1 false)
  call void @_ZN5vcpkg9ExpectedTINS_4SpanIKNS_7VersionEEENS_15LocalizedStringEED2Ev(ptr noundef nonnull align 8 dereferenceable(33) %7) #13
  %32 = load { ptr, i64 }, ptr %4, align 8
  ret { ptr, i64 } %32

33:                                               ; preds = %3
  %34 = landingpad { ptr, i32 }
          cleanup
  %35 = extractvalue { ptr, i32 } %34, 0
  store ptr %35, ptr %11, align 8
  %36 = extractvalue { ptr, i32 } %34, 1
  store i32 %36, ptr %12, align 4
  call void @_ZN5vcpkg9ExpectedTINS_4SpanIKNS_7VersionEEENS_15LocalizedStringEED2Ev(ptr noundef nonnull align 8 dereferenceable(33) %7) #13
  br label %37

37:                                               ; preds = %33
  %38 = load ptr, ptr %11, align 8
  %39 = load i32, ptr %12, align 4
  %40 = insertvalue { ptr, i32 } poison, ptr %38, 0
  %41 = insertvalue { ptr, i32 } %40, i32 %39, 1
  resume { ptr, i32 } %41
}