; Function Attrs: mustprogress uwtable
define internal { ptr, i64 } @_ZNK5vcpkg12_GLOBAL__N_129VersionedPortfileProviderImpl17get_port_versionsENS_10StringViewE(ptr noundef nonnull align 8 dereferenceable(128) %0, ptr %1, i64 %2) unnamed_addr #1 align 2 personality ptr @__gxx_personality_v0 {
  %4 = alloca %"struct.vcpkg::ExpectedT.164", align 8
  %5 = alloca %"struct.vcpkg::LineInfo", align 8
  %6 = alloca %"struct.vcpkg::LineInfo", align 8
  %7 = tail call fastcc noundef nonnull align 8 dereferenceable(33) ptr @_ZNK5vcpkg12_GLOBAL__N_129VersionedPortfileProviderImpl5entryENS_10StringViewE(ptr noundef nonnull align 8 dereferenceable(128) %0, ptr %1, i64 %2)
  store i32 166, ptr %5, align 8
  %8 = getelementptr inbounds i8, ptr %5, i64 8
  store ptr @.str.24, ptr %8, align 8
  %9 = getelementptr inbounds i8, ptr %7, i64 32
  %10 = load i8, ptr %9, align 8
  %11 = and i8 %10, 1
  %.not.i.i = icmp eq i8 %11, 0
  br i1 %.not.i.i, label %_ZNKR5vcpkg9ExpectedTISt10unique_ptrINS_13RegistryEntryESt14default_deleteIS2_EENS_15LocalizedStringEE13value_or_exitERKNS_8LineInfoE.exit, label %12

12:                                               ; preds = %3
  %13 = tail call noundef nonnull align 8 dereferenceable(32) ptr @_ZNKR5vcpkg9ExpectedTISt10unique_ptrINS_13RegistryEntryESt14default_deleteIS2_EENS_15LocalizedStringEE5errorEv(ptr noundef nonnull align 8 dereferenceable(33) %7) #17
  invoke void @_ZN5vcpkg6Checks21msg_exit_with_messageERKNS_8LineInfoERKNS_15LocalizedStringE(ptr noundef nonnull align 8 dereferenceable(16) %5, ptr noundef nonnull align 8 dereferenceable(32) %13) #18
          to label %14 unwind label %15

14:                                               ; preds = %12
  unreachable

15:                                               ; preds = %12
  %16 = landingpad { ptr, i32 }
          catch ptr null
  %17 = extractvalue { ptr, i32 } %16, 0
  call void @__clang_call_terminate(ptr %17) #22
  unreachable

_ZNKR5vcpkg9ExpectedTISt10unique_ptrINS_13RegistryEntryESt14default_deleteIS2_EENS_15LocalizedStringEE13value_or_exitERKNS_8LineInfoE.exit: ; preds = %3
  %18 = load ptr, ptr %7, align 8
  %19 = load ptr, ptr %18, align 8
  %20 = load ptr, ptr %19, align 8
  call void %20(ptr dead_on_unwind nonnull writable sret(%"struct.vcpkg::ExpectedT.164") align 8 %4, ptr noundef nonnull align 8 dereferenceable(8) %18)
  store i32 168, ptr %6, align 8
  %21 = getelementptr inbounds i8, ptr %6, i64 8
  store ptr @.str.24, ptr %21, align 8
  %22 = getelementptr inbounds i8, ptr %4, i64 32
  %23 = load i8, ptr %22, align 8
  %24 = and i8 %23, 1
  %.not.i.i5 = icmp eq i8 %24, 0
  br i1 %.not.i.i5, label %_ZN5vcpkg9ExpectedTINS_4SpanIKNS_7VersionEEENS_15LocalizedStringEED2Ev.exit, label %25

25:                                               ; preds = %_ZNKR5vcpkg9ExpectedTISt10unique_ptrINS_13RegistryEntryESt14default_deleteIS2_EENS_15LocalizedStringEE13value_or_exitERKNS_8LineInfoE.exit
  %26 = call noundef nonnull align 8 dereferenceable(32) ptr @_ZNKR5vcpkg9ExpectedTINS_4SpanIKNS_7VersionEEENS_15LocalizedStringEE5errorEv(ptr noundef nonnull align 8 dereferenceable(33) %4) #17
  invoke void @_ZN5vcpkg6Checks21msg_exit_with_messageERKNS_8LineInfoERKNS_15LocalizedStringE(ptr noundef nonnull align 8 dereferenceable(16) %6, ptr noundef nonnull align 8 dereferenceable(32) %26) #18
          to label %27 unwind label %28

27:                                               ; preds = %25
  unreachable

28:                                               ; preds = %25
  %29 = landingpad { ptr, i32 }
          catch ptr null
  %30 = extractvalue { ptr, i32 } %29, 0
  call void @__clang_call_terminate(ptr %30) #22
  unreachable

_ZN5vcpkg9ExpectedTINS_4SpanIKNS_7VersionEEENS_15LocalizedStringEED2Ev.exit: ; preds = %_ZNKR5vcpkg9ExpectedTISt10unique_ptrINS_13RegistryEntryESt14default_deleteIS2_EENS_15LocalizedStringEE13value_or_exitERKNS_8LineInfoE.exit
  %.sroa.03.0.copyload = load ptr, ptr %4, align 8
  %.sroa.24.0..sroa_idx = getelementptr inbounds i8, ptr %4, i64 8
  %.sroa.24.0.copyload = load i64, ptr %.sroa.24.0..sroa_idx, align 8
  %.fca.0.insert = insertvalue { ptr, i64 } poison, ptr %.sroa.03.0.copyload, 0
  %.fca.1.insert = insertvalue { ptr, i64 } %.fca.0.insert, i64 %.sroa.24.0.copyload, 1
  ret { ptr, i64 } %.fca.1.insert
}